target datalayout = "e-m:e-p270:32:32-p271:32:32-p272:64:64-i64:64-i128:128-f80:128-n8:16:32:64-S128"
target triple = "x86_64-pc-linux-gnu"

%struct.bn_mont_ctx_st = type { %struct.bignum_st, %struct.bignum_st, [2 x i64] }
%struct.bignum_st = type { ptr, i32, i32, i32, i32 }

; Function Attrs: nounwind uwtable
define hidden void @BN_MONT_CTX_free(ptr noundef %0) #0 {
  %2 = alloca ptr, align 8
  store ptr %0, ptr %2, align 8, !tbaa !6
  %3 = load ptr, ptr %2, align 8, !tbaa !6
  %4 = icmp eq ptr %3, null
  br i1 %4, label %5, label %6

5:                                                ; preds = %1
  br label %12

6:                                                ; preds = %1
  %7 = load ptr, ptr %2, align 8, !tbaa !6
  %8 = getelementptr inbounds nuw %struct.bn_mont_ctx_st, ptr %7, i32 0, i32 0
  call void @BN_free(ptr noundef %8)
  %9 = load ptr, ptr %2, align 8, !tbaa !6
  %10 = getelementptr inbounds nuw %struct.bn_mont_ctx_st, ptr %9, i32 0, i32 1
  call void @BN_free(ptr noundef %10)
  %11 = load ptr, ptr %2, align 8, !tbaa !6
  call void @free(ptr noundef %11) #6
  br label %12

12:                                               ; preds = %6, %5
  ret void
}

; Function Attrs: nounwind uwtable
define hidden ptr @BN_MONT_CTX_new() #0 {
  %1 = alloca ptr, align 8
  %2 = alloca ptr, align 8
  %3 = alloca i32, align 4
  call void @llvm.lifetime.start.p0(i64 8, ptr %2) #6
  %4 = call noalias ptr @malloc(i64 noundef 64) #7
  store ptr %4, ptr %2, align 8, !tbaa !6
  %5 = load ptr, ptr %2, align 8, !tbaa !6
  %6 = icmp eq ptr %5, null
  br i1 %6, label %7, label %8

7:                                                ; preds = %0
  store ptr null, ptr %1, align 8
  store i32 1, ptr %3, align 4
  br label %15

8:                                                ; preds = %0
  %9 = load ptr, ptr %2, align 8, !tbaa !6
  call void @llvm.memset.p0.i64(ptr align 8 %9, i8 0, i64 64, i1 false)
  %10 = load ptr, ptr %2, align 8, !tbaa !6
  %11 = getelementptr inbounds nuw %struct.bn_mont_ctx_st, ptr %10, i32 0, i32 0
  call void @BN_init(ptr noundef %11)
  %12 = load ptr, ptr %2, align 8, !tbaa !6
  %13 = getelementptr inbounds nuw %struct.bn_mont_ctx_st, ptr %12, i32 0, i32 1
  call void @BN_init(ptr noundef %13)
  %14 = load ptr, ptr %2, align 8, !tbaa !6
  store ptr %14, ptr %1, align 8
  store i32 1, ptr %3, align 4
  br label %15

15:                                               ; preds = %8, %7
  call void @llvm.lifetime.end.p0(i64 8, ptr %2) #6
  %16 = load ptr, ptr %1, align 8
  ret ptr %16
}

; Function Attrs: nounwind uwtable
define hidden i32 @BN_MONT_CTX_set_locked(ptr noundef %0, ptr noundef %1, ptr noundef %2, ptr noundef %3) #0 {
  %5 = alloca i32, align 4
  %6 = alloca ptr, align 8
  %7 = alloca ptr, align 8
  %8 = alloca ptr, align 8
  %9 = alloca ptr, align 8
  %10 = alloca ptr, align 8
  %11 = alloca i32, align 4
  store ptr %0, ptr %6, align 8, !tbaa !27
  store ptr %1, ptr %7, align 8, !tbaa !29
  store ptr %2, ptr %8, align 8, !tbaa !13
  store ptr %3, ptr %9, align 8, !tbaa !15
  %12 = load ptr, ptr %7, align 8, !tbaa !29
  call void @CRYPTO_MUTEX_lock_read(ptr noundef %12)
  call void @llvm.lifetime.start.p0(i64 8, ptr %10) #6
  %13 = load ptr, ptr %6, align 8, !tbaa !27
  %14 = load ptr, ptr %13, align 8, !tbaa !6
  store ptr %14, ptr %10, align 8, !tbaa !6
  %15 = load ptr, ptr %7, align 8, !tbaa !29
  call void @CRYPTO_MUTEX_unlock(ptr noundef %15)
  %16 = load ptr, ptr %10, align 8, !tbaa !6
  %17 = icmp ne ptr %16, null
  br i1 %17, label %18, label %19

18:                                               ; preds = %4
  store i32 1, ptr %5, align 4
  store i32 1, ptr %11, align 4
  br label %47

19:                                               ; preds = %4
  %20 = load ptr, ptr %7, align 8, !tbaa !29
  call void @CRYPTO_MUTEX_lock_write(ptr noundef %20)
  %21 = load ptr, ptr %6, align 8, !tbaa !27
  %22 = load ptr, ptr %21, align 8, !tbaa !6
  store ptr %22, ptr %10, align 8, !tbaa !6
  %23 = load ptr, ptr %10, align 8, !tbaa !6
  %24 = icmp ne ptr %23, null
  br i1 %24, label %25, label %26

25:                                               ; preds = %19
  br label %42

26:                                               ; preds = %19
  %27 = call ptr @BN_MONT_CTX_new()
  store ptr %27, ptr %10, align 8, !tbaa !6
  %28 = load ptr, ptr %10, align 8, !tbaa !6
  %29 = icmp eq ptr %28, null
  br i1 %29, label %30, label %31

30:                                               ; preds = %26
  br label %42

31:                                               ; preds = %26
  %32 = load ptr, ptr %10, align 8, !tbaa !6
  %33 = load ptr, ptr %8, align 8, !tbaa !13
  %34 = load ptr, ptr %9, align 8, !tbaa !15
  %35 = call i32 @BN_MONT_CTX_set(ptr noundef %32, ptr noundef %33, ptr noundef %34)
  %36 = icmp ne i32 %35, 0
  br i1 %36, label %39, label %37

37:                                               ; preds = %31
  %38 = load ptr, ptr %10, align 8, !tbaa !6
  call void @BN_MONT_CTX_free(ptr noundef %38)
  store ptr null, ptr %10, align 8, !tbaa !6
  br label %42

39:                                               ; preds = %31
  %40 = load ptr, ptr %10, align 8, !tbaa !6
  %41 = load ptr, ptr %6, align 8, !tbaa !27
  store ptr %40, ptr %41, align 8, !tbaa !6
  br label %42

42:                                               ; preds = %39, %37, %30, %25
  %43 = load ptr, ptr %7, align 8, !tbaa !29
  call void @CRYPTO_MUTEX_unlock(ptr noundef %43)
  %44 = load ptr, ptr %10, align 8, !tbaa !6
  %45 = icmp ne ptr %44, null
  %46 = zext i1 %45 to i32
  store i32 %46, ptr %5, align 4
  store i32 1, ptr %11, align 4
  br label %47

47:                                               ; preds = %42, %18
  call void @llvm.lifetime.end.p0(i64 8, ptr %10) #6
  %48 = load i32, ptr %5, align 4
  ret i32 %48
}