; Function Attrs: nounwind uwtable
define hidden range(i32 0, 2) i32 @BN_MONT_CTX_set_locked(ptr noundef captures(none) %0, ptr noundef %1, ptr noundef %2, ptr noundef %3) local_unnamed_addr #0 {
  tail call void @CRYPTO_MUTEX_lock_read(ptr noundef %1) #6
  %5 = load ptr, ptr %0, align 8, !tbaa !20
  tail call void @CRYPTO_MUTEX_unlock(ptr noundef %1) #6
  %.not = icmp eq ptr %5, null
  br i1 %.not, label %6, label %14

6:                                                ; preds = %4
  tail call void @CRYPTO_MUTEX_lock_write(ptr noundef %1) #6
  %7 = load ptr, ptr %0, align 8, !tbaa !20
  %.not19 = icmp eq ptr %7, null
  br i1 %.not19, label %8, label %BN_MONT_CTX_new.exit.thread

8:                                                ; preds = %6
  %calloc.i = tail call dereferenceable_or_null(64) ptr @calloc(i64 1, i64 64)
  %9 = icmp eq ptr %calloc.i, null
  br i1 %9, label %BN_MONT_CTX_new.exit.thread, label %10

10:                                               ; preds = %8
  tail call void @BN_init(ptr noundef nonnull %calloc.i) #6
  %11 = getelementptr inbounds nuw i8, ptr %calloc.i, i64 24
  tail call void @BN_init(ptr noundef nonnull %11) #6
  %12 = tail call i32 @BN_MONT_CTX_set(ptr noundef nonnull %calloc.i, ptr noundef %2, ptr noundef %3)
  %.not20 = icmp eq i32 %12, 0
  br i1 %.not20, label %BN_MONT_CTX_free.exit, label %13

BN_MONT_CTX_free.exit:                            ; preds = %10
  tail call void @BN_free(ptr noundef nonnull %calloc.i) #6
  tail call void @BN_free(ptr noundef nonnull %11) #6
  tail call void @free(ptr noundef nonnull %calloc.i) #6
  br label %BN_MONT_CTX_new.exit.thread

13:                                               ; preds = %10
  store ptr %calloc.i, ptr %0, align 8, !tbaa !20
  br label %BN_MONT_CTX_new.exit.thread

BN_MONT_CTX_new.exit.thread:                      ; preds = %8, %6, %13, %BN_MONT_CTX_free.exit
  %.0 = phi i32 [ 1, %6 ], [ 1, %13 ], [ 0, %BN_MONT_CTX_free.exit ], [ 0, %8 ]
  tail call void @CRYPTO_MUTEX_unlock(ptr noundef %1) #6
  br label %14

14:                                               ; preds = %4, %BN_MONT_CTX_new.exit.thread
  %.016 = phi i32 [ %.0, %BN_MONT_CTX_new.exit.thread ], [ 1, %4 ]
  ret i32 %.016
}